; Function Attrs: mustprogress uwtable
define void @cvRandArr(ptr noundef %0, ptr noundef %1, i32 noundef %2, ptr nocapture noundef readonly byval(%struct.CvScalar) align 8 %3, ptr nocapture noundef readonly byval(%struct.CvScalar) align 8 %4) local_unnamed_addr #1 personality ptr @__gxx_personality_v0 {
  %6 = alloca %"class.cv::Mat", align 8
  %7 = alloca %"class.cv::_InputOutputArray", align 8
  %8 = alloca %"class.cv::_InputArray", align 8
  %9 = alloca %"class.cv::Scalar_", align 16
  %10 = alloca %"class.cv::_InputArray", align 8
  %11 = alloca %"class.cv::Scalar_", align 16
  call void @_ZN2cv10cvarrToMatEPKvbbiPNS_10AutoBufferIdLm136EEE(ptr dead_on_unwind nonnull writable sret(%"class.cv::Mat") align 8 %6, ptr noundef %1, i1 noundef zeroext false, i1 noundef zeroext true, i32 noundef 0, ptr noundef null)
  %.not = icmp eq ptr %0, null
  br i1 %.not, label %12, label %14

12:                                               ; preds = %5
  %13 = invoke noundef nonnull align 8 dereferenceable(40) ptr @_ZN2cv14getCoreTlsDataEv()
          to label %14 unwind label %33

14:                                               ; preds = %5, %12
  %15 = phi ptr [ %0, %5 ], [ %13, %12 ]
  %16 = getelementptr inbounds i8, ptr %7, i64 8
  %17 = getelementptr inbounds i8, ptr %7, i64 16
  store i64 0, ptr %17, align 8
  store i32 50397184, ptr %7, align 8
  store ptr %6, ptr %16, align 8
  %18 = icmp eq i32 %2, 1
  %19 = zext i1 %18 to i32
  call void @llvm.experimental.noalias.scope.decl(metadata !70)
  %20 = getelementptr inbounds i8, ptr %3, i64 16
  %21 = load <2 x double>, ptr %3, align 8, !noalias !70
  store <2 x double> %21, ptr %9, align 16, !alias.scope !70
  %22 = getelementptr inbounds i8, ptr %9, i64 16
  %23 = load <2 x double>, ptr %20, align 8, !noalias !70
  store <2 x double> %23, ptr %22, align 16, !alias.scope !70
  %24 = getelementptr inbounds i8, ptr %8, i64 16
  store i32 -1056833530, ptr %8, align 8
  %25 = getelementptr inbounds i8, ptr %8, i64 8
  store ptr %9, ptr %25, align 8
  store i64 17179869185, ptr %24, align 8
  call void @llvm.experimental.noalias.scope.decl(metadata !73)
  %26 = getelementptr inbounds i8, ptr %4, i64 16
  %27 = load <2 x double>, ptr %4, align 8, !noalias !73
  store <2 x double> %27, ptr %11, align 16, !alias.scope !73
  %28 = getelementptr inbounds i8, ptr %11, i64 16
  %29 = load <2 x double>, ptr %26, align 8, !noalias !73
  store <2 x double> %29, ptr %28, align 16, !alias.scope !73
  %30 = getelementptr inbounds i8, ptr %10, i64 16
  store i32 -1056833530, ptr %10, align 8
  %31 = getelementptr inbounds i8, ptr %10, i64 8
  store ptr %11, ptr %31, align 8
  store i64 17179869185, ptr %30, align 8
  invoke void @_ZN2cv3RNG4fillERKNS_17_InputOutputArrayEiRKNS_11_InputArrayES6_b(ptr noundef nonnull align 8 dereferenceable(8) %15, ptr noundef nonnull align 8 dereferenceable(24) %7, i32 noundef %19, ptr noundef nonnull align 8 dereferenceable(24) %8, ptr noundef nonnull align 8 dereferenceable(24) %10, i1 noundef zeroext false)
          to label %32 unwind label %35

32:                                               ; preds = %14
  call void @_ZN2cv3MatD1Ev(ptr noundef nonnull align 8 dereferenceable(96) %6) #19
  ret void

33:                                               ; preds = %12
  %34 = landingpad { ptr, i32 }
          cleanup
  br label %37

35:                                               ; preds = %14
  %36 = landingpad { ptr, i32 }
          cleanup
  br label %37

37:                                               ; preds = %35, %33
  %.pn.pn.pn = phi { ptr, i32 } [ %34, %33 ], [ %36, %35 ]
  call void @_ZN2cv3MatD1Ev(ptr noundef nonnull align 8 dereferenceable(96) %6) #19
  resume { ptr, i32 } %.pn.pn.pn
}